; Function Attrs: mustprogress nofree norecurse nosync nounwind willreturn memory(read, inaccessiblemem: none) uwtable
define internal { double, double } @_ZL10forward_2d5PJ_LPP8PJconsts(double %0, double %1, ptr noundef readonly captures(none) %2) #4 {
  %4 = getelementptr inbounds nuw i8, ptr %2, i64 88
  %5 = load ptr, ptr %4, align 8, !tbaa !40
  %6 = getelementptr inbounds nuw i8, ptr %5, i64 8
  %7 = load double, ptr %6, align 8, !tbaa !52
  %8 = fmul double %0, %7
  %9 = fmul double %1, %7
  %.fca.0.insert = insertvalue { double, double } poison, double %8, 0
  %.fca.1.insert = insertvalue { double, double } %.fca.0.insert, double %9, 1
  ret { double, double } %.fca.1.insert
}